; Listing generated by Microsoft (R) Optimizing Compiler Version 19.29.30040.0 

include listing.inc

INCLUDELIB LIBCMTD
INCLUDELIB OLDNAMES

msvcjmc	SEGMENT
__02E23235_vcruntime_new@h DB 01H
__741AE07E_corecrt_math@h DB 01H
__B49664B7_stdlib@h DB 01H
__80A05712_cstdlib DB 01H
__6D66DEAE_cmath DB 01H
__A2143F22_corecrt_stdio_config@h DB 01H
__829E1958_corecrt_wstdio@h DB 01H
__6DFAE8B8_stdio@h DB 01H
__1FEB9909_corecrt_memcpy_s@h DB 01H
__C6E16F6F_corecrt_wconio@h DB 01H
__6D390390_corecrt_wio@h DB 01H
__9200769A_corecrt_wstring@h DB 01H
__1157D6BA_corecrt_wtime@h DB 01H
__1DC1E279_stat@h DB 01H
__93DC0B45_wchar@h DB 01H
__44860E64_limits DB 01H
__D1154D4E_type_traits DB 01H
__20BB4341_malloc@h DB 01H
__BDCC0984_vcruntime_exception@h DB 01H
__89F7010A_exception DB 01H
__A751F051_corecrt_memory@h DB 01H
__32E5F013_string@h DB 01H
__7CE971A6_xutility DB 01H
__DD38B15A_xmemory DB 01H
__633B43DE_algorithm DB 01H
__317CA204_xbit_ops@h DB 01H
__A9EB37C6_xstring DB 01H
__047EEC0A_random DB 01H
__A978B71E_vector_types@h DB 01H
__D96A21B7_channel_descriptor@h DB 01H
__44BC40D5_driver_functions@h DB 01H
__B4D7BE30_vector_functions@hpp DB 01H
__9BCDECE5_cuda_runtime@h DB 01H
__00B93B57_stdexcept DB 01H
__79ECA8A5_xcall_once@h DB 01H
__A0B61CF9_time@h DB 01H
__8476F639_xthreads@h DB 01H
__2FB352A6_atomic DB 01H
__C6B1BA85_system_error DB 01H
__65F43743_vcruntime_typeinfo@h DB 01H
__0C3682BF_typeinfo DB 01H
__F82802EA_memory DB 01H
__D46D55E5_xfacet DB 01H
__B2D2BA86_ctype@h DB 01H
__13BF6177_xlocinfo DB 01H
__76D543F7_xlocale DB 01H
__2A5A1664_xiosbase DB 01H
__E85225E0_xlocnum DB 01H
__FD1AE8DD_ios DB 01H
__996C8687_Vec3@cuh DB 01H
__32677E70_Ray@h DB 01H
__F6517A76_Hittable@h DB 01H
__BADA5728_Hittable@cpp DB 01H
__092B7E84_vector DB 01H
__B7ADD299_utility DB 01H
__40B2458B_xstddef DB 01H
__83FB8DDC_xatomic@h DB 01H
msvcjmc	ENDS
PUBLIC	?__empty_global_delete@@YAXPEAX@Z		; __empty_global_delete
PUBLIC	?__empty_global_delete@@YAXPEAX_K@Z		; __empty_global_delete
PUBLIC	?hit@HitList@@UEBA_NAEBUray@@MMAEAUhit_record@@@Z ; HitList::hit
PUBLIC	__JustMyCode_Default
EXTRN	_RTC_CheckStackVars:PROC
EXTRN	_RTC_InitBase:PROC
EXTRN	_RTC_Shutdown:PROC
EXTRN	__CheckForDebuggerJustMyCode:PROC
EXTRN	_fltused:DWORD
;	COMDAT pdata
pdata	SEGMENT
$pdata$?__empty_global_delete@@YAXPEAX@Z DD imagerel $LN3
	DD	imagerel $LN3+41
	DD	imagerel $unwind$?__empty_global_delete@@YAXPEAX@Z
pdata	ENDS
;	COMDAT pdata
pdata	SEGMENT
$pdata$?__empty_global_delete@@YAXPEAX_K@Z DD imagerel $LN3
	DD	imagerel $LN3+46
	DD	imagerel $unwind$?__empty_global_delete@@YAXPEAX_K@Z
pdata	ENDS
;	COMDAT pdata
pdata	SEGMENT
$pdata$?hit@HitList@@UEBA_NAEBUray@@MMAEAUhit_record@@@Z DD imagerel $LN7
	DD	imagerel $LN7+295
	DD	imagerel $unwind$?hit@HitList@@UEBA_NAEBUray@@MMAEAUhit_record@@@Z
pdata	ENDS
;	COMDAT rtc$TMZ
rtc$TMZ	SEGMENT
_RTC_Shutdown.rtc$TMZ DQ FLAT:_RTC_Shutdown
rtc$TMZ	ENDS
;	COMDAT rtc$IMZ
rtc$IMZ	SEGMENT
_RTC_InitBase.rtc$IMZ DQ FLAT:_RTC_InitBase
rtc$IMZ	ENDS
;	COMDAT xdata
xdata	SEGMENT
$unwind$?hit@HitList@@UEBA_NAEBUray@@MMAEAUhit_record@@@Z DD 035063e01H
	DD	01203325H
	DD	070190032H
	DD	050176018H
xdata	ENDS
;	COMDAT CONST
CONST	SEGMENT
?hit@HitList@@UEBA_NAEBUray@@MMAEAUhit_record@@@Z$rtcName$0 DB 074H ; HitList::hit
	DB	065H
	DB	06dH
	DB	070H
	DB	05fH
	DB	072H
	DB	065H
	DB	063H
	DB	00H
	ORG $+7
?hit@HitList@@UEBA_NAEBUray@@MMAEAUhit_record@@@Z$rtcVarDesc DD 038H ; HitList::hit
	DD	020H
	DQ	FLAT:?hit@HitList@@UEBA_NAEBUray@@MMAEAUhit_record@@@Z$rtcName$0
	ORG $+48
?hit@HitList@@UEBA_NAEBUray@@MMAEAUhit_record@@@Z$rtcFrameData DD 01H ; HitList::hit
	DD	00H
	DQ	FLAT:?hit@HitList@@UEBA_NAEBUray@@MMAEAUhit_record@@@Z$rtcVarDesc
CONST	ENDS
;	COMDAT xdata
xdata	SEGMENT
$unwind$?__empty_global_delete@@YAXPEAX_K@Z DD 025051801H
	DD	01132318H
	DD	0700c001dH
	DD	0500bH
xdata	ENDS
;	COMDAT xdata
xdata	SEGMENT
$unwind$?__empty_global_delete@@YAXPEAX@Z DD 025051301H
	DD	010e2313H
	DD	07007001dH
	DD	05006H
xdata	ENDS
; Function compile flags: /Odt
;	COMDAT __JustMyCode_Default
_TEXT	SEGMENT
__JustMyCode_Default PROC				; COMDAT
	ret	0
__JustMyCode_Default ENDP
_TEXT	ENDS
; Function compile flags: /Odtp /RTCsu /ZI
; File C:\Users\hunte\source\repos\MetaRay\MetaRay\src\Hittable.cpp
;	COMDAT ?hit@HitList@@UEBA_NAEBUray@@MMAEAUhit_record@@@Z
_TEXT	SEGMENT
temp_rec$ = 8
hit_anything$ = 68
closest_so_far$ = 100
i$4 = 132
this$ = 384
r$ = 392
t_min$ = 400
t_max$ = 408
rec$ = 416
?hit@HitList@@UEBA_NAEBUray@@MMAEAUhit_record@@@Z PROC	; HitList::hit, COMDAT

; 6    : {

$LN7:
	movss	DWORD PTR [rsp+32], xmm3
	movss	DWORD PTR [rsp+24], xmm2
	mov	QWORD PTR [rsp+16], rdx
	mov	QWORD PTR [rsp+8], rcx
	push	rbp
	push	rsi
	push	rdi
	sub	rsp, 400				; 00000190H
	lea	rbp, QWORD PTR [rsp+48]
	lea	rdi, QWORD PTR [rsp+48]
	mov	ecx, 40					; 00000028H
	mov	eax, -858993460				; ccccccccH
	rep stosd
	mov	rcx, QWORD PTR [rsp+440]
	lea	rcx, OFFSET FLAT:__BADA5728_Hittable@cpp
	call	__CheckForDebuggerJustMyCode

; 7    :     hit_record temp_rec;
; 8    :     bool hit_anything = false;

	mov	BYTE PTR hit_anything$[rbp], 0

; 9    :     float closest_so_far = t_max;

	movss	xmm0, DWORD PTR t_max$[rbp]
	movss	DWORD PTR closest_so_far$[rbp], xmm0

; 10   :     for (int i = 0; i < m_Size; i++) {

	mov	DWORD PTR i$4[rbp], 0
	jmp	SHORT $LN4@hit
$LN2@hit:
	mov	eax, DWORD PTR i$4[rbp]
	inc	eax
	mov	DWORD PTR i$4[rbp], eax
$LN4@hit:
	mov	rax, QWORD PTR this$[rbp]
	mov	eax, DWORD PTR [rax+16]
	cmp	DWORD PTR i$4[rbp], eax
	jge	SHORT $LN3@hit

; 11   :         if (m_Objects[i]->hit(r, t_min, closest_so_far, temp_rec)) {

	movsxd	rax, DWORD PTR i$4[rbp]
	mov	rcx, QWORD PTR this$[rbp]
	mov	rcx, QWORD PTR [rcx+8]
	mov	rax, QWORD PTR [rcx+rax*8]
	movsxd	rcx, DWORD PTR i$4[rbp]
	mov	rdx, QWORD PTR this$[rbp]
	mov	rdx, QWORD PTR [rdx+8]
	mov	rcx, QWORD PTR [rdx+rcx*8]
	mov	rax, QWORD PTR [rax]
	lea	rdx, QWORD PTR temp_rec$[rbp]
	mov	QWORD PTR [rsp+32], rdx
	movss	xmm3, DWORD PTR closest_so_far$[rbp]
	movss	xmm2, DWORD PTR t_min$[rbp]
	mov	rdx, QWORD PTR r$[rbp]
	call	QWORD PTR [rax]
	movzx	eax, al
	test	eax, eax
	je	SHORT $LN5@hit

; 12   :             hit_anything = true;

	mov	BYTE PTR hit_anything$[rbp], 1

; 13   :             closest_so_far = temp_rec.t;

	movss	xmm0, DWORD PTR temp_rec$[rbp+24]
	movss	DWORD PTR closest_so_far$[rbp], xmm0

; 14   :             rec = temp_rec;

	lea	rax, QWORD PTR temp_rec$[rbp]
	mov	rdi, QWORD PTR rec$[rbp]
	mov	rsi, rax
	mov	ecx, 32					; 00000020H
	rep movsb
$LN5@hit:

; 15   :         }
; 16   :     }

	jmp	$LN2@hit
$LN3@hit:

; 17   :     return hit_anything;

	movzx	eax, BYTE PTR hit_anything$[rbp]

; 18   : }

	mov	edi, eax
	lea	rcx, QWORD PTR [rbp-48]
	lea	rdx, OFFSET FLAT:?hit@HitList@@UEBA_NAEBUray@@MMAEAUhit_record@@@Z$rtcFrameData
	call	_RTC_CheckStackVars
	mov	eax, edi
	lea	rsp, QWORD PTR [rbp+352]
	pop	rdi
	pop	rsi
	pop	rbp
	ret	0
?hit@HitList@@UEBA_NAEBUray@@MMAEAUhit_record@@@Z ENDP	; HitList::hit
_TEXT	ENDS
; Function compile flags: /Odtp /RTCsu /ZI
; File C:\Users\hunte\source\repos\MetaRay\MetaRay\src\Hittable.cpp
;	COMDAT ?__empty_global_delete@@YAXPEAX_K@Z
_TEXT	SEGMENT
__formal$ = 224
__formal$ = 232
?__empty_global_delete@@YAXPEAX_K@Z PROC		; __empty_global_delete, COMDAT

$LN3:
	mov	QWORD PTR [rsp+16], rdx
	mov	QWORD PTR [rsp+8], rcx
	push	rbp
	push	rdi
	sub	rsp, 232				; 000000e8H
	lea	rbp, QWORD PTR [rsp+32]
	lea	rcx, OFFSET FLAT:__BADA5728_Hittable@cpp
	call	__CheckForDebuggerJustMyCode
	lea	rsp, QWORD PTR [rbp+200]
	pop	rdi
	pop	rbp
	ret	0
?__empty_global_delete@@YAXPEAX_K@Z ENDP		; __empty_global_delete
_TEXT	ENDS
; Function compile flags: /Odtp /RTCsu /ZI
; File C:\Users\hunte\source\repos\MetaRay\MetaRay\src\Hittable.cpp
;	COMDAT ?__empty_global_delete@@YAXPEAX@Z
_TEXT	SEGMENT
__formal$ = 224
?__empty_global_delete@@YAXPEAX@Z PROC			; __empty_global_delete, COMDAT

$LN3:
	mov	QWORD PTR [rsp+8], rcx
	push	rbp
	push	rdi
	sub	rsp, 232				; 000000e8H
	lea	rbp, QWORD PTR [rsp+32]
	lea	rcx, OFFSET FLAT:__BADA5728_Hittable@cpp
	call	__CheckForDebuggerJustMyCode
	lea	rsp, QWORD PTR [rbp+200]
	pop	rdi
	pop	rbp
	ret	0
?__empty_global_delete@@YAXPEAX@Z ENDP			; __empty_global_delete
_TEXT	ENDS
END
