; Listing generated by Microsoft (R) Optimizing Compiler Version 19.29.30040.0 

include listing.inc

INCLUDELIB LIBCMTD
INCLUDELIB OLDNAMES

msvcjmc	SEGMENT
__02E23235_vcruntime_new@h DB 01H
__741AE07E_corecrt_math@h DB 01H
__B49664B7_stdlib@h DB 01H
__80A05712_cstdlib DB 01H
__6D66DEAE_cmath DB 01H
__A2143F22_corecrt_stdio_config@h DB 01H
__829E1958_corecrt_wstdio@h DB 01H
__6DFAE8B8_stdio@h DB 01H
__1FEB9909_corecrt_memcpy_s@h DB 01H
__C6E16F6F_corecrt_wconio@h DB 01H
__6D390390_corecrt_wio@h DB 01H
__9200769A_corecrt_wstring@h DB 01H
__1157D6BA_corecrt_wtime@h DB 01H
__1DC1E279_stat@h DB 01H
__93DC0B45_wchar@h DB 01H
__44860E64_limits DB 01H
__D1154D4E_type_traits DB 01H
__20BB4341_malloc@h DB 01H
__BDCC0984_vcruntime_exception@h DB 01H
__89F7010A_exception DB 01H
__A751F051_corecrt_memory@h DB 01H
__32E5F013_string@h DB 01H
__7CE971A6_xutility DB 01H
__DD38B15A_xmemory DB 01H
__633B43DE_algorithm DB 01H
__317CA204_xbit_ops@h DB 01H
__A9EB37C6_xstring DB 01H
__047EEC0A_random DB 01H
__A978B71E_vector_types@h DB 01H
__D96A21B7_channel_descriptor@h DB 01H
__44BC40D5_driver_functions@h DB 01H
__B4D7BE30_vector_functions@hpp DB 01H
__9BCDECE5_cuda_runtime@h DB 01H
__00B93B57_stdexcept DB 01H
__79ECA8A5_xcall_once@h DB 01H
__A0B61CF9_time@h DB 01H
__8476F639_xthreads@h DB 01H
__2FB352A6_atomic DB 01H
__C6B1BA85_system_error DB 01H
__65F43743_vcruntime_typeinfo@h DB 01H
__0C3682BF_typeinfo DB 01H
__F82802EA_memory DB 01H
__D46D55E5_xfacet DB 01H
__B2D2BA86_ctype@h DB 01H
__13BF6177_xlocinfo DB 01H
__76D543F7_xlocale DB 01H
__2A5A1664_xiosbase DB 01H
__E85225E0_xlocnum DB 01H
__FD1AE8DD_ios DB 01H
__F03674A5_Vec3@h DB 01H
__32677E70_Ray@h DB 01H
__F6517A76_Hittable@h DB 01H
__EBBC9262_Shapes@h DB 01H
__3AA5F7DA_Shapes@cpp DB 01H
__092B7E84_vector DB 01H
__B7ADD299_utility DB 01H
__40B2458B_xstddef DB 01H
__83FB8DDC_xatomic@h DB 01H
msvcjmc	ENDS
PUBLIC	?__empty_global_delete@@YAXPEAX@Z		; __empty_global_delete
PUBLIC	?__empty_global_delete@@YAXPEAX_K@Z		; __empty_global_delete
PUBLIC	?sqrt@@YAMM@Z					; sqrt
PUBLIC	??0vec3@@QEAA@MMM@Z				; vec3::vec3
PUBLIC	?dot@vec3@@QEBAMAEBV1@@Z			; vec3::dot
PUBLIC	??H@YA?AVvec3@@AEBV0@0@Z			; operator+
PUBLIC	??G@YA?AVvec3@@AEBV0@0@Z			; operator-
PUBLIC	??D@YA?AVvec3@@MAEBV0@@Z			; operator*
PUBLIC	??K@YA?AVvec3@@AEBV0@M@Z			; operator/
PUBLIC	?at@ray@@QEBA?AVvec3@@M@Z			; ray::at
PUBLIC	??0Hittable@@QEAA@XZ				; Hittable::Hittable
PUBLIC	??0Sphere@@QEAA@AEBVvec3@@M@Z			; Sphere::Sphere
PUBLIC	?hit@Sphere@@UEBA_NAEBUray@@MMAEAUhit_record@@@Z ; Sphere::hit
PUBLIC	__JustMyCode_Default
PUBLIC	??_7Hittable@@6B@				; Hittable::`vftable'
PUBLIC	??_7Sphere@@6B@					; Sphere::`vftable'
PUBLIC	??_R4Hittable@@6B@				; Hittable::`RTTI Complete Object Locator'
PUBLIC	??_R0?AVHittable@@@8				; Hittable `RTTI Type Descriptor'
PUBLIC	??_R3Hittable@@8				; Hittable::`RTTI Class Hierarchy Descriptor'
PUBLIC	??_R2Hittable@@8				; Hittable::`RTTI Base Class Array'
PUBLIC	??_R1A@?0A@EA@Hittable@@8			; Hittable::`RTTI Base Class Descriptor at (0,-1,0,64)'
PUBLIC	??_R4Sphere@@6B@				; Sphere::`RTTI Complete Object Locator'
PUBLIC	??_R0?AVSphere@@@8				; Sphere `RTTI Type Descriptor'
PUBLIC	??_R3Sphere@@8					; Sphere::`RTTI Class Hierarchy Descriptor'
PUBLIC	??_R2Sphere@@8					; Sphere::`RTTI Base Class Array'
PUBLIC	??_R1A@?0A@EA@Sphere@@8				; Sphere::`RTTI Base Class Descriptor at (0,-1,0,64)'
PUBLIC	__real@00000000
PUBLIC	__xmm@80000000800000008000000080000000
EXTRN	_purecall:PROC
EXTRN	sqrtf:PROC
EXTRN	_RTC_CheckStackVars:PROC
EXTRN	_RTC_InitBase:PROC
EXTRN	_RTC_Shutdown:PROC
EXTRN	__CheckForDebuggerJustMyCode:PROC
EXTRN	??_7type_info@@6B@:BYTE				; type_info::`vftable'
EXTRN	_fltused:DWORD
;	COMDAT pdata
pdata	SEGMENT
$pdata$?__empty_global_delete@@YAXPEAX@Z DD imagerel $LN3
	DD	imagerel $LN3+41
	DD	imagerel $unwind$?__empty_global_delete@@YAXPEAX@Z
pdata	ENDS
;	COMDAT pdata
pdata	SEGMENT
$pdata$?__empty_global_delete@@YAXPEAX_K@Z DD imagerel $LN3
	DD	imagerel $LN3+46
	DD	imagerel $unwind$?__empty_global_delete@@YAXPEAX_K@Z
pdata	ENDS
;	COMDAT pdata
pdata	SEGMENT
$pdata$?sqrt@@YAMM@Z DD imagerel $LN3
	DD	imagerel $LN3+55
	DD	imagerel $unwind$?sqrt@@YAMM@Z
pdata	ENDS
;	COMDAT pdata
pdata	SEGMENT
$pdata$??0vec3@@QEAA@MMM@Z DD imagerel $LN3
	DD	imagerel $LN3+125
	DD	imagerel $unwind$??0vec3@@QEAA@MMM@Z
pdata	ENDS
;	COMDAT pdata
pdata	SEGMENT
$pdata$?dot@vec3@@QEBAMAEBV1@@Z DD imagerel $LN3
	DD	imagerel $LN3+124
	DD	imagerel $unwind$?dot@vec3@@QEBAMAEBV1@@Z
pdata	ENDS
;	COMDAT pdata
pdata	SEGMENT
$pdata$??H@YA?AVvec3@@AEBV0@0@Z DD imagerel $LN3
	DD	imagerel $LN3+165
	DD	imagerel $unwind$??H@YA?AVvec3@@AEBV0@0@Z
pdata	ENDS
;	COMDAT pdata
pdata	SEGMENT
$pdata$??G@YA?AVvec3@@AEBV0@0@Z DD imagerel $LN3
	DD	imagerel $LN3+165
	DD	imagerel $unwind$??G@YA?AVvec3@@AEBV0@0@Z
pdata	ENDS
;	COMDAT pdata
pdata	SEGMENT
$pdata$??D@YA?AVvec3@@MAEBV0@@Z DD imagerel $LN3
	DD	imagerel $LN3+155
	DD	imagerel $unwind$??D@YA?AVvec3@@MAEBV0@@Z
pdata	ENDS
;	COMDAT pdata
pdata	SEGMENT
$pdata$??K@YA?AVvec3@@AEBV0@M@Z DD imagerel $LN3
	DD	imagerel $LN3+155
	DD	imagerel $unwind$??K@YA?AVvec3@@AEBV0@M@Z
pdata	ENDS
;	COMDAT pdata
pdata	SEGMENT
$pdata$?at@ray@@QEBA?AVvec3@@M@Z DD imagerel $LN3
	DD	imagerel $LN3+118
	DD	imagerel $unwind$?at@ray@@QEBA?AVvec3@@M@Z
pdata	ENDS
;	COMDAT pdata
pdata	SEGMENT
$pdata$??0Hittable@@QEAA@XZ DD imagerel $LN3
	DD	imagerel $LN3+51
	DD	imagerel $unwind$??0Hittable@@QEAA@XZ
pdata	ENDS
;	COMDAT pdata
pdata	SEGMENT
$pdata$??0Sphere@@QEAA@AEBVvec3@@M@Z DD imagerel $LN3
	DD	imagerel $LN3+135
	DD	imagerel $unwind$??0Sphere@@QEAA@AEBVvec3@@M@Z
pdata	ENDS
;	COMDAT pdata
pdata	SEGMENT
$pdata$?hit@Sphere@@UEBA_NAEBUray@@MMAEAUhit_record@@@Z DD imagerel $LN6
	DD	imagerel $LN6+825
	DD	imagerel $unwind$?hit@Sphere@@UEBA_NAEBUray@@MMAEAUhit_record@@@Z
pdata	ENDS
;	COMDAT __xmm@80000000800000008000000080000000
CONST	SEGMENT
__xmm@80000000800000008000000080000000 DB 00H, 00H, 00H, 080H, 00H, 00H, 00H
	DB	080H, 00H, 00H, 00H, 080H, 00H, 00H, 00H, 080H
CONST	ENDS
;	COMDAT __real@00000000
CONST	SEGMENT
__real@00000000 DD 000000000r			; 0
CONST	ENDS
;	COMDAT rtc$TMZ
rtc$TMZ	SEGMENT
_RTC_Shutdown.rtc$TMZ DQ FLAT:_RTC_Shutdown
rtc$TMZ	ENDS
;	COMDAT rtc$IMZ
rtc$IMZ	SEGMENT
_RTC_InitBase.rtc$IMZ DQ FLAT:_RTC_InitBase
rtc$IMZ	ENDS
;	COMDAT ??_R1A@?0A@EA@Sphere@@8
rdata$r	SEGMENT
??_R1A@?0A@EA@Sphere@@8 DD imagerel ??_R0?AVSphere@@@8	; Sphere::`RTTI Base Class Descriptor at (0,-1,0,64)'
	DD	01H
	DD	00H
	DD	0ffffffffH
	DD	00H
	DD	040H
	DD	imagerel ??_R3Sphere@@8
rdata$r	ENDS
;	COMDAT ??_R2Sphere@@8
rdata$r	SEGMENT
??_R2Sphere@@8 DD imagerel ??_R1A@?0A@EA@Sphere@@8	; Sphere::`RTTI Base Class Array'
	DD	imagerel ??_R1A@?0A@EA@Hittable@@8
	ORG $+3
rdata$r	ENDS
;	COMDAT ??_R3Sphere@@8
rdata$r	SEGMENT
??_R3Sphere@@8 DD 00H					; Sphere::`RTTI Class Hierarchy Descriptor'
	DD	00H
	DD	02H
	DD	imagerel ??_R2Sphere@@8
rdata$r	ENDS
;	COMDAT ??_R0?AVSphere@@@8
data$rs	SEGMENT
??_R0?AVSphere@@@8 DQ FLAT:??_7type_info@@6B@		; Sphere `RTTI Type Descriptor'
	DQ	0000000000000000H
	DB	'.?AVSphere@@', 00H
data$rs	ENDS
;	COMDAT ??_R4Sphere@@6B@
rdata$r	SEGMENT
??_R4Sphere@@6B@ DD 01H					; Sphere::`RTTI Complete Object Locator'
	DD	00H
	DD	00H
	DD	imagerel ??_R0?AVSphere@@@8
	DD	imagerel ??_R3Sphere@@8
	DD	imagerel ??_R4Sphere@@6B@
rdata$r	ENDS
;	COMDAT ??_R1A@?0A@EA@Hittable@@8
rdata$r	SEGMENT
??_R1A@?0A@EA@Hittable@@8 DD imagerel ??_R0?AVHittable@@@8 ; Hittable::`RTTI Base Class Descriptor at (0,-1,0,64)'
	DD	00H
	DD	00H
	DD	0ffffffffH
	DD	00H
	DD	040H
	DD	imagerel ??_R3Hittable@@8
rdata$r	ENDS
;	COMDAT ??_R2Hittable@@8
rdata$r	SEGMENT
??_R2Hittable@@8 DD imagerel ??_R1A@?0A@EA@Hittable@@8	; Hittable::`RTTI Base Class Array'
	ORG $+3
rdata$r	ENDS
;	COMDAT ??_R3Hittable@@8
rdata$r	SEGMENT
??_R3Hittable@@8 DD 00H					; Hittable::`RTTI Class Hierarchy Descriptor'
	DD	00H
	DD	01H
	DD	imagerel ??_R2Hittable@@8
rdata$r	ENDS
;	COMDAT ??_R0?AVHittable@@@8
data$rs	SEGMENT
??_R0?AVHittable@@@8 DQ FLAT:??_7type_info@@6B@		; Hittable `RTTI Type Descriptor'
	DQ	0000000000000000H
	DB	'.?AVHittable@@', 00H
data$rs	ENDS
;	COMDAT ??_R4Hittable@@6B@
rdata$r	SEGMENT
??_R4Hittable@@6B@ DD 01H				; Hittable::`RTTI Complete Object Locator'
	DD	00H
	DD	00H
	DD	imagerel ??_R0?AVHittable@@@8
	DD	imagerel ??_R3Hittable@@8
	DD	imagerel ??_R4Hittable@@6B@
rdata$r	ENDS
;	COMDAT ??_7Sphere@@6B@
CONST	SEGMENT
??_7Sphere@@6B@ DQ FLAT:??_R4Sphere@@6B@		; Sphere::`vftable'
	DQ	FLAT:?hit@Sphere@@UEBA_NAEBUray@@MMAEAUhit_record@@@Z
CONST	ENDS
;	COMDAT ??_7Hittable@@6B@
CONST	SEGMENT
??_7Hittable@@6B@ DQ FLAT:??_R4Hittable@@6B@		; Hittable::`vftable'
	DQ	FLAT:_purecall
CONST	ENDS
;	COMDAT xdata
xdata	SEGMENT
$unwind$?hit@Sphere@@UEBA_NAEBUray@@MMAEAUhit_record@@@Z DD 025063e01H
	DD	01202325H
	DD	07019004eH
	DD	050176018H
xdata	ENDS
;	COMDAT CONST
CONST	SEGMENT
?hit@Sphere@@UEBA_NAEBUray@@MMAEAUhit_record@@@Z$rtcName$0 DB 06fH ; Sphere::hit
	DB	063H
	DB	00H
	ORG $+13
?hit@Sphere@@UEBA_NAEBUray@@MMAEAUhit_record@@@Z$rtcVarDesc DD 028H ; Sphere::hit
	DD	0cH
	DQ	FLAT:?hit@Sphere@@UEBA_NAEBUray@@MMAEAUhit_record@@@Z$rtcName$0
	ORG $+48
?hit@Sphere@@UEBA_NAEBUray@@MMAEAUhit_record@@@Z$rtcFrameData DD 01H ; Sphere::hit
	DD	00H
	DQ	FLAT:?hit@Sphere@@UEBA_NAEBUray@@MMAEAUhit_record@@@Z$rtcVarDesc
CONST	ENDS
;	COMDAT xdata
xdata	SEGMENT
$unwind$??0Sphere@@QEAA@AEBVvec3@@M@Z DD 025061f01H
	DD	011a231fH
	DD	07013001cH
	DD	050116012H
xdata	ENDS
;	COMDAT xdata
xdata	SEGMENT
$unwind$??0Hittable@@QEAA@XZ DD 05051101H
	DD	010e0311H
	DD	070070019H
	DD	05006H
xdata	ENDS
;	COMDAT xdata
xdata	SEGMENT
$unwind$?at@ray@@QEBA?AVvec3@@M@Z DD 025051e01H
	DD	0119231eH
	DD	070120021H
	DD	05011H
xdata	ENDS
;	COMDAT xdata
xdata	SEGMENT
$unwind$??K@YA?AVvec3@@AEBV0@M@Z DD 025051e01H
	DD	0119231eH
	DD	07012001fH
	DD	05011H
xdata	ENDS
;	COMDAT xdata
xdata	SEGMENT
$unwind$??D@YA?AVvec3@@MAEBV0@@Z DD 025051e01H
	DD	0119231eH
	DD	07012001fH
	DD	05011H
xdata	ENDS
;	COMDAT xdata
xdata	SEGMENT
$unwind$??G@YA?AVvec3@@AEBV0@0@Z DD 025051d01H
	DD	0118231dH
	DD	07011001fH
	DD	05010H
xdata	ENDS
;	COMDAT xdata
xdata	SEGMENT
$unwind$??H@YA?AVvec3@@AEBV0@0@Z DD 025051d01H
	DD	0118231dH
	DD	07011001fH
	DD	05010H
xdata	ENDS
;	COMDAT xdata
xdata	SEGMENT
$unwind$?dot@vec3@@QEBAMAEBV1@@Z DD 035051801H
	DD	01133318H
	DD	0700c001fH
	DD	0500bH
xdata	ENDS
;	COMDAT xdata
xdata	SEGMENT
$unwind$??0vec3@@QEAA@MMM@Z DD 025052501H
	DD	01202325H
	DD	07019001dH
	DD	05018H
xdata	ENDS
;	COMDAT xdata
xdata	SEGMENT
$unwind$?sqrt@@YAMM@Z DD 035051401H
	DD	010f3314H
	DD	07008001fH
	DD	05007H
xdata	ENDS
;	COMDAT xdata
xdata	SEGMENT
$unwind$?__empty_global_delete@@YAXPEAX_K@Z DD 025051801H
	DD	01132318H
	DD	0700c001dH
	DD	0500bH
xdata	ENDS
;	COMDAT xdata
xdata	SEGMENT
$unwind$?__empty_global_delete@@YAXPEAX@Z DD 025051301H
	DD	010e2313H
	DD	07007001dH
	DD	05006H
xdata	ENDS
; Function compile flags: /Odt
;	COMDAT __JustMyCode_Default
_TEXT	SEGMENT
__JustMyCode_Default PROC				; COMDAT
	ret	0
__JustMyCode_Default ENDP
_TEXT	ENDS
; Function compile flags: /Odtp /RTCsu /ZI
; File C:\Users\hunte\source\repos\MetaRay\MetaRay\src\Shapes.cpp
;	COMDAT ?hit@Sphere@@UEBA_NAEBUray@@MMAEAUhit_record@@@Z
_TEXT	SEGMENT
oc$ = 8
a$ = 52
b$ = 84
c$ = 116
discriminant$ = 148
temp$4 = 180
$T5 = 404
$T6 = 436
$T7 = 468
$T8 = 500
$T9 = 532
$T10 = 564
tv149 = 580
tv89 = 580
this$ = 624
r$ = 632
t_min$ = 640
t_max$ = 648
rec$ = 656
?hit@Sphere@@UEBA_NAEBUray@@MMAEAUhit_record@@@Z PROC	; Sphere::hit, COMDAT

; 12   : {

$LN6:
	movss	DWORD PTR [rsp+32], xmm3
	movss	DWORD PTR [rsp+24], xmm2
	mov	QWORD PTR [rsp+16], rdx
	mov	QWORD PTR [rsp+8], rcx
	push	rbp
	push	rsi
	push	rdi
	sub	rsp, 624				; 00000270H
	lea	rbp, QWORD PTR [rsp+32]
	lea	rdi, QWORD PTR [rsp+32]
	mov	ecx, 100				; 00000064H
	mov	eax, -858993460				; ccccccccH
	rep stosd
	mov	rcx, QWORD PTR [rsp+664]
	lea	rcx, OFFSET FLAT:__3AA5F7DA_Shapes@cpp
	call	__CheckForDebuggerJustMyCode

; 13   :     vec3 oc = r.origin - m_Center;

	mov	rax, QWORD PTR this$[rbp]
	add	rax, 8
	mov	rcx, QWORD PTR r$[rbp]
	mov	r8, rax
	mov	rdx, rcx
	lea	rcx, QWORD PTR oc$[rbp]
	call	??G@YA?AVvec3@@AEBV0@0@Z		; operator-

; 14   :     float a = r.direction.dot(r.direction);

	mov	rax, QWORD PTR r$[rbp]
	add	rax, 12
	mov	rcx, QWORD PTR r$[rbp]
	add	rcx, 12
	mov	rdx, rax
	call	?dot@vec3@@QEBAMAEBV1@@Z		; vec3::dot
	movss	DWORD PTR a$[rbp], xmm0

; 15   :     float b = oc.dot(r.direction);

	mov	rax, QWORD PTR r$[rbp]
	add	rax, 12
	mov	rdx, rax
	lea	rcx, QWORD PTR oc$[rbp]
	call	?dot@vec3@@QEBAMAEBV1@@Z		; vec3::dot
	movss	DWORD PTR b$[rbp], xmm0

; 16   :     float c = oc.dot(oc) - m_Radius * m_Radius;

	lea	rdx, QWORD PTR oc$[rbp]
	lea	rcx, QWORD PTR oc$[rbp]
	call	?dot@vec3@@QEBAMAEBV1@@Z		; vec3::dot
	mov	rax, QWORD PTR this$[rbp]
	mov	rcx, QWORD PTR this$[rbp]
	movss	xmm1, DWORD PTR [rax+20]
	mulss	xmm1, DWORD PTR [rcx+20]
	subss	xmm0, xmm1
	movss	DWORD PTR c$[rbp], xmm0

; 17   :     float discriminant = b * b - a * c;

	movss	xmm0, DWORD PTR b$[rbp]
	mulss	xmm0, DWORD PTR b$[rbp]
	movss	xmm1, DWORD PTR a$[rbp]
	mulss	xmm1, DWORD PTR c$[rbp]
	subss	xmm0, xmm1
	movss	DWORD PTR discriminant$[rbp], xmm0

; 18   :     if (discriminant > 0) {

	movss	xmm0, DWORD PTR discriminant$[rbp]
	comiss	xmm0, DWORD PTR __real@00000000
	jbe	$LN2@hit

; 19   :         float temp = (-b - sqrt(discriminant)) / a;

	movss	xmm0, DWORD PTR b$[rbp]
	xorps	xmm0, DWORD PTR __xmm@80000000800000008000000080000000
	movss	DWORD PTR tv89[rbp], xmm0
	movss	xmm0, DWORD PTR discriminant$[rbp]
	call	?sqrt@@YAMM@Z				; sqrt
	movss	xmm1, DWORD PTR tv89[rbp]
	subss	xmm1, xmm0
	movaps	xmm0, xmm1
	divss	xmm0, DWORD PTR a$[rbp]
	movss	DWORD PTR temp$4[rbp], xmm0

; 20   :         if (temp < t_max && temp > t_min) {

	movss	xmm0, DWORD PTR t_max$[rbp]
	comiss	xmm0, DWORD PTR temp$4[rbp]
	jbe	$LN3@hit
	movss	xmm0, DWORD PTR temp$4[rbp]
	comiss	xmm0, DWORD PTR t_min$[rbp]
	jbe	$LN3@hit

; 21   :             rec.t = temp;

	mov	rax, QWORD PTR rec$[rbp]
	movss	xmm0, DWORD PTR temp$4[rbp]
	movss	DWORD PTR [rax+24], xmm0

; 22   :             rec.p = r.at(rec.t);

	mov	rax, QWORD PTR rec$[rbp]
	movss	xmm2, DWORD PTR [rax+24]
	lea	rdx, QWORD PTR $T5[rbp]
	mov	rcx, QWORD PTR r$[rbp]
	call	?at@ray@@QEBA?AVvec3@@M@Z		; ray::at
	mov	rdi, QWORD PTR rec$[rbp]
	mov	rsi, rax
	mov	ecx, 12
	rep movsb

; 23   :             rec.normal = (rec.p - m_Center) / m_Radius;

	mov	rax, QWORD PTR this$[rbp]
	add	rax, 8
	mov	rcx, QWORD PTR rec$[rbp]
	mov	r8, rax
	mov	rdx, rcx
	lea	rcx, QWORD PTR $T6[rbp]
	call	??G@YA?AVvec3@@AEBV0@0@Z		; operator-
	mov	rcx, QWORD PTR this$[rbp]
	movss	xmm2, DWORD PTR [rcx+20]
	mov	rdx, rax
	lea	rcx, QWORD PTR $T7[rbp]
	call	??K@YA?AVvec3@@AEBV0@M@Z		; operator/
	mov	rcx, QWORD PTR rec$[rbp]
	lea	rdi, QWORD PTR [rcx+12]
	mov	rsi, rax
	mov	ecx, 12
	rep movsb

; 24   :             return true;

	mov	al, 1
	jmp	$LN1@hit
$LN3@hit:

; 25   :         }
; 26   :         temp = (-b + sqrt(discriminant)) / a;

	movss	xmm0, DWORD PTR b$[rbp]
	xorps	xmm0, DWORD PTR __xmm@80000000800000008000000080000000
	movss	DWORD PTR tv149[rbp], xmm0
	movss	xmm0, DWORD PTR discriminant$[rbp]
	call	?sqrt@@YAMM@Z				; sqrt
	movss	xmm1, DWORD PTR tv149[rbp]
	addss	xmm1, xmm0
	movaps	xmm0, xmm1
	divss	xmm0, DWORD PTR a$[rbp]
	movss	DWORD PTR temp$4[rbp], xmm0

; 27   :         if (temp < t_max && temp > t_min) {

	movss	xmm0, DWORD PTR t_max$[rbp]
	comiss	xmm0, DWORD PTR temp$4[rbp]
	jbe	$LN4@hit
	movss	xmm0, DWORD PTR temp$4[rbp]
	comiss	xmm0, DWORD PTR t_min$[rbp]
	jbe	$LN4@hit

; 28   :             rec.t = temp;

	mov	rax, QWORD PTR rec$[rbp]
	movss	xmm0, DWORD PTR temp$4[rbp]
	movss	DWORD PTR [rax+24], xmm0

; 29   :             rec.p = r.at(rec.t);

	mov	rax, QWORD PTR rec$[rbp]
	movss	xmm2, DWORD PTR [rax+24]
	lea	rdx, QWORD PTR $T8[rbp]
	mov	rcx, QWORD PTR r$[rbp]
	call	?at@ray@@QEBA?AVvec3@@M@Z		; ray::at
	mov	rdi, QWORD PTR rec$[rbp]
	mov	rsi, rax
	mov	ecx, 12
	rep movsb

; 30   :             rec.normal = (rec.p - m_Center) / m_Radius;

	mov	rax, QWORD PTR this$[rbp]
	add	rax, 8
	mov	rcx, QWORD PTR rec$[rbp]
	mov	r8, rax
	mov	rdx, rcx
	lea	rcx, QWORD PTR $T9[rbp]
	call	??G@YA?AVvec3@@AEBV0@0@Z		; operator-
	mov	rcx, QWORD PTR this$[rbp]
	movss	xmm2, DWORD PTR [rcx+20]
	mov	rdx, rax
	lea	rcx, QWORD PTR $T10[rbp]
	call	??K@YA?AVvec3@@AEBV0@M@Z		; operator/
	mov	rcx, QWORD PTR rec$[rbp]
	lea	rdi, QWORD PTR [rcx+12]
	mov	rsi, rax
	mov	ecx, 12
	rep movsb

; 31   :             return true;

	mov	al, 1
	jmp	SHORT $LN1@hit
$LN4@hit:
$LN2@hit:

; 32   :         }
; 33   :     }
; 34   :     return false;

	xor	al, al
$LN1@hit:

; 35   : }

	mov	rdi, rax
	lea	rcx, QWORD PTR [rbp-32]
	lea	rdx, OFFSET FLAT:?hit@Sphere@@UEBA_NAEBUray@@MMAEAUhit_record@@@Z$rtcFrameData
	call	_RTC_CheckStackVars
	mov	rax, rdi
	lea	rsp, QWORD PTR [rbp+592]
	pop	rdi
	pop	rsi
	pop	rbp
	ret	0
?hit@Sphere@@UEBA_NAEBUray@@MMAEAUhit_record@@@Z ENDP	; Sphere::hit
_TEXT	ENDS
; Function compile flags: /Odtp /RTCsu /ZI
; File C:\Users\hunte\source\repos\MetaRay\MetaRay\src\Shapes.cpp
;	COMDAT ??0Sphere@@QEAA@AEBVvec3@@M@Z
_TEXT	SEGMENT
this$ = 224
center$ = 232
radius$ = 240
??0Sphere@@QEAA@AEBVvec3@@M@Z PROC			; Sphere::Sphere, COMDAT

; 8    : {

$LN3:
	movss	DWORD PTR [rsp+24], xmm2
	mov	QWORD PTR [rsp+16], rdx
	mov	QWORD PTR [rsp+8], rcx
	push	rbp
	push	rsi
	push	rdi
	sub	rsp, 224				; 000000e0H
	lea	rbp, QWORD PTR [rsp+32]
	lea	rcx, OFFSET FLAT:__3AA5F7DA_Shapes@cpp
	call	__CheckForDebuggerJustMyCode
	mov	rcx, QWORD PTR this$[rbp]
	call	??0Hittable@@QEAA@XZ
	mov	rax, QWORD PTR this$[rbp]
	lea	rcx, OFFSET FLAT:??_7Sphere@@6B@
	mov	QWORD PTR [rax], rcx

; 7    :     :m_Center(center), m_Radius(radius)

	mov	rax, QWORD PTR this$[rbp]
	lea	rdi, QWORD PTR [rax+8]
	mov	rsi, QWORD PTR center$[rbp]
	mov	ecx, 12
	rep movsb
	mov	rax, QWORD PTR this$[rbp]
	movss	xmm0, DWORD PTR radius$[rbp]
	movss	DWORD PTR [rax+20], xmm0

; 9    : }

	mov	rax, QWORD PTR this$[rbp]
	lea	rsp, QWORD PTR [rbp+192]
	pop	rdi
	pop	rsi
	pop	rbp
	ret	0
??0Sphere@@QEAA@AEBVvec3@@M@Z ENDP			; Sphere::Sphere
_TEXT	ENDS
; Function compile flags: /Odtp /RTCsu /ZI
;	COMDAT ??0Hittable@@QEAA@XZ
_TEXT	SEGMENT
this$ = 224
??0Hittable@@QEAA@XZ PROC				; Hittable::Hittable, COMDAT
$LN3:
	mov	QWORD PTR [rsp+8], rcx
	push	rbp
	push	rdi
	sub	rsp, 200				; 000000c8H
	mov	rbp, rsp
	mov	rax, QWORD PTR this$[rbp]
	lea	rcx, OFFSET FLAT:??_7Hittable@@6B@
	mov	QWORD PTR [rax], rcx
	mov	rax, QWORD PTR this$[rbp]
	lea	rsp, QWORD PTR [rbp+200]
	pop	rdi
	pop	rbp
	ret	0
??0Hittable@@QEAA@XZ ENDP				; Hittable::Hittable
_TEXT	ENDS
; Function compile flags: /Odtp /RTCsu /ZI
; File C:\Users\hunte\source\repos\MetaRay\MetaRay\src\Ray.h
;	COMDAT ?at@ray@@QEBA?AVvec3@@M@Z
_TEXT	SEGMENT
$T1 = 196
this$ = 256
__$ReturnUdt$ = 264
t$ = 272
?at@ray@@QEBA?AVvec3@@M@Z PROC				; ray::at, COMDAT

; 17   : 	__device__ vec3 at(float t) const {

$LN3:
	movss	DWORD PTR [rsp+24], xmm2
	mov	QWORD PTR [rsp+16], rdx
	mov	QWORD PTR [rsp+8], rcx
	push	rbp
	push	rdi
	sub	rsp, 264				; 00000108H
	lea	rbp, QWORD PTR [rsp+32]
	lea	rcx, OFFSET FLAT:__32677E70_Ray@h
	call	__CheckForDebuggerJustMyCode

; 18   : 		return origin + t * direction;

	mov	rax, QWORD PTR this$[rbp]
	add	rax, 12
	mov	r8, rax
	movss	xmm1, DWORD PTR t$[rbp]
	lea	rcx, QWORD PTR $T1[rbp]
	call	??D@YA?AVvec3@@MAEBV0@@Z		; operator*
	mov	rcx, QWORD PTR this$[rbp]
	mov	r8, rax
	mov	rdx, rcx
	mov	rcx, QWORD PTR __$ReturnUdt$[rbp]
	call	??H@YA?AVvec3@@AEBV0@0@Z		; operator+
	mov	rax, QWORD PTR __$ReturnUdt$[rbp]

; 19   : 	}

	lea	rsp, QWORD PTR [rbp+232]
	pop	rdi
	pop	rbp
	ret	0
?at@ray@@QEBA?AVvec3@@M@Z ENDP				; ray::at
_TEXT	ENDS
; Function compile flags: /Odtp /RTCsu /ZI
; File C:\Users\hunte\source\repos\MetaRay\MetaRay\src\Vec3.h
;	COMDAT ??K@YA?AVvec3@@AEBV0@M@Z
_TEXT	SEGMENT
tv73 = 192
__$ReturnUdt$ = 240
v$ = 248
s$ = 256
??K@YA?AVvec3@@AEBV0@M@Z PROC				; operator/, COMDAT

; 50   : CUDA_SHARED inline vec3 operator/(const vec3& v, float s) { return vec3(v.x / s, v.y / s, v.z / s); }

$LN3:
	movss	DWORD PTR [rsp+24], xmm2
	mov	QWORD PTR [rsp+16], rdx
	mov	QWORD PTR [rsp+8], rcx
	push	rbp
	push	rdi
	sub	rsp, 248				; 000000f8H
	lea	rbp, QWORD PTR [rsp+32]
	lea	rcx, OFFSET FLAT:__F03674A5_Vec3@h
	call	__CheckForDebuggerJustMyCode
	mov	rax, QWORD PTR v$[rbp]
	movss	xmm0, DWORD PTR [rax+8]
	divss	xmm0, DWORD PTR s$[rbp]
	mov	rax, QWORD PTR v$[rbp]
	movss	xmm1, DWORD PTR [rax+4]
	divss	xmm1, DWORD PTR s$[rbp]
	mov	rax, QWORD PTR v$[rbp]
	movss	xmm2, DWORD PTR [rax]
	divss	xmm2, DWORD PTR s$[rbp]
	movss	DWORD PTR tv73[rbp], xmm2
	movaps	xmm3, xmm0
	movaps	xmm2, xmm1
	movss	xmm0, DWORD PTR tv73[rbp]
	movaps	xmm1, xmm0
	mov	rcx, QWORD PTR __$ReturnUdt$[rbp]
	call	??0vec3@@QEAA@MMM@Z			; vec3::vec3
	mov	rax, QWORD PTR __$ReturnUdt$[rbp]
	lea	rsp, QWORD PTR [rbp+216]
	pop	rdi
	pop	rbp
	ret	0
??K@YA?AVvec3@@AEBV0@M@Z ENDP				; operator/
_TEXT	ENDS
; Function compile flags: /Odtp /RTCsu /ZI
; File C:\Users\hunte\source\repos\MetaRay\MetaRay\src\Vec3.h
;	COMDAT ??D@YA?AVvec3@@MAEBV0@@Z
_TEXT	SEGMENT
tv73 = 192
__$ReturnUdt$ = 240
s$ = 248
v$ = 256
??D@YA?AVvec3@@MAEBV0@@Z PROC				; operator*, COMDAT

; 49   : CUDA_SHARED inline vec3 operator*(float s, const vec3& v) { return vec3(v.x * s, v.y * s, v.z * s); }

$LN3:
	mov	QWORD PTR [rsp+24], r8
	movss	DWORD PTR [rsp+16], xmm1
	mov	QWORD PTR [rsp+8], rcx
	push	rbp
	push	rdi
	sub	rsp, 248				; 000000f8H
	lea	rbp, QWORD PTR [rsp+32]
	lea	rcx, OFFSET FLAT:__F03674A5_Vec3@h
	call	__CheckForDebuggerJustMyCode
	mov	rax, QWORD PTR v$[rbp]
	movss	xmm0, DWORD PTR [rax+8]
	mulss	xmm0, DWORD PTR s$[rbp]
	mov	rax, QWORD PTR v$[rbp]
	movss	xmm1, DWORD PTR [rax+4]
	mulss	xmm1, DWORD PTR s$[rbp]
	mov	rax, QWORD PTR v$[rbp]
	movss	xmm2, DWORD PTR [rax]
	mulss	xmm2, DWORD PTR s$[rbp]
	movss	DWORD PTR tv73[rbp], xmm2
	movaps	xmm3, xmm0
	movaps	xmm2, xmm1
	movss	xmm0, DWORD PTR tv73[rbp]
	movaps	xmm1, xmm0
	mov	rcx, QWORD PTR __$ReturnUdt$[rbp]
	call	??0vec3@@QEAA@MMM@Z			; vec3::vec3
	mov	rax, QWORD PTR __$ReturnUdt$[rbp]
	lea	rsp, QWORD PTR [rbp+216]
	pop	rdi
	pop	rbp
	ret	0
??D@YA?AVvec3@@MAEBV0@@Z ENDP				; operator*
_TEXT	ENDS
; Function compile flags: /Odtp /RTCsu /ZI
; File C:\Users\hunte\source\repos\MetaRay\MetaRay\src\Vec3.h
;	COMDAT ??G@YA?AVvec3@@AEBV0@0@Z
_TEXT	SEGMENT
tv76 = 192
__$ReturnUdt$ = 240
v1$ = 248
v2$ = 256
??G@YA?AVvec3@@AEBV0@0@Z PROC				; operator-, COMDAT

; 43   : CUDA_SHARED inline vec3 operator-(const vec3& v1, const vec3& v2) { return vec3(v1.x - v2.x, v1.y - v2.y, v1.z - v2.z); }

$LN3:
	mov	QWORD PTR [rsp+24], r8
	mov	QWORD PTR [rsp+16], rdx
	mov	QWORD PTR [rsp+8], rcx
	push	rbp
	push	rdi
	sub	rsp, 248				; 000000f8H
	lea	rbp, QWORD PTR [rsp+32]
	lea	rcx, OFFSET FLAT:__F03674A5_Vec3@h
	call	__CheckForDebuggerJustMyCode
	mov	rax, QWORD PTR v1$[rbp]
	mov	rcx, QWORD PTR v2$[rbp]
	movss	xmm0, DWORD PTR [rax+8]
	subss	xmm0, DWORD PTR [rcx+8]
	mov	rax, QWORD PTR v1$[rbp]
	mov	rcx, QWORD PTR v2$[rbp]
	movss	xmm1, DWORD PTR [rax+4]
	subss	xmm1, DWORD PTR [rcx+4]
	mov	rax, QWORD PTR v1$[rbp]
	mov	rcx, QWORD PTR v2$[rbp]
	movss	xmm2, DWORD PTR [rax]
	subss	xmm2, DWORD PTR [rcx]
	movss	DWORD PTR tv76[rbp], xmm2
	movaps	xmm3, xmm0
	movaps	xmm2, xmm1
	movss	xmm0, DWORD PTR tv76[rbp]
	movaps	xmm1, xmm0
	mov	rcx, QWORD PTR __$ReturnUdt$[rbp]
	call	??0vec3@@QEAA@MMM@Z			; vec3::vec3
	mov	rax, QWORD PTR __$ReturnUdt$[rbp]
	lea	rsp, QWORD PTR [rbp+216]
	pop	rdi
	pop	rbp
	ret	0
??G@YA?AVvec3@@AEBV0@0@Z ENDP				; operator-
_TEXT	ENDS
; Function compile flags: /Odtp /RTCsu /ZI
; File C:\Users\hunte\source\repos\MetaRay\MetaRay\src\Vec3.h
;	COMDAT ??H@YA?AVvec3@@AEBV0@0@Z
_TEXT	SEGMENT
tv76 = 192
__$ReturnUdt$ = 240
v1$ = 248
v2$ = 256
??H@YA?AVvec3@@AEBV0@0@Z PROC				; operator+, COMDAT

; 42   : CUDA_SHARED inline vec3 operator+(const vec3& v1, const vec3& v2) { return vec3(v1.x + v2.x, v1.y + v2.y, v1.z + v2.z); }

$LN3:
	mov	QWORD PTR [rsp+24], r8
	mov	QWORD PTR [rsp+16], rdx
	mov	QWORD PTR [rsp+8], rcx
	push	rbp
	push	rdi
	sub	rsp, 248				; 000000f8H
	lea	rbp, QWORD PTR [rsp+32]
	lea	rcx, OFFSET FLAT:__F03674A5_Vec3@h
	call	__CheckForDebuggerJustMyCode
	mov	rax, QWORD PTR v1$[rbp]
	mov	rcx, QWORD PTR v2$[rbp]
	movss	xmm0, DWORD PTR [rax+8]
	addss	xmm0, DWORD PTR [rcx+8]
	mov	rax, QWORD PTR v1$[rbp]
	mov	rcx, QWORD PTR v2$[rbp]
	movss	xmm1, DWORD PTR [rax+4]
	addss	xmm1, DWORD PTR [rcx+4]
	mov	rax, QWORD PTR v1$[rbp]
	mov	rcx, QWORD PTR v2$[rbp]
	movss	xmm2, DWORD PTR [rax]
	addss	xmm2, DWORD PTR [rcx]
	movss	DWORD PTR tv76[rbp], xmm2
	movaps	xmm3, xmm0
	movaps	xmm2, xmm1
	movss	xmm0, DWORD PTR tv76[rbp]
	movaps	xmm1, xmm0
	mov	rcx, QWORD PTR __$ReturnUdt$[rbp]
	call	??0vec3@@QEAA@MMM@Z			; vec3::vec3
	mov	rax, QWORD PTR __$ReturnUdt$[rbp]
	lea	rsp, QWORD PTR [rbp+216]
	pop	rdi
	pop	rbp
	ret	0
??H@YA?AVvec3@@AEBV0@0@Z ENDP				; operator+
_TEXT	ENDS
; Function compile flags: /Odtp /RTCsu /ZI
; File C:\Users\hunte\source\repos\MetaRay\MetaRay\src\Vec3.h
;	COMDAT ?dot@vec3@@QEBAMAEBV1@@Z
_TEXT	SEGMENT
this$ = 224
other$ = 232
?dot@vec3@@QEBAMAEBV1@@Z PROC				; vec3::dot, COMDAT

; 17   : 	CUDA_SHARED inline float dot(const vec3& other) const { return x * other.x + y * other.y + z * other.z; }

$LN3:
	mov	QWORD PTR [rsp+16], rdx
	mov	QWORD PTR [rsp+8], rcx
	push	rbp
	push	rdi
	sub	rsp, 248				; 000000f8H
	lea	rbp, QWORD PTR [rsp+48]
	lea	rcx, OFFSET FLAT:__F03674A5_Vec3@h
	call	__CheckForDebuggerJustMyCode
	mov	rax, QWORD PTR this$[rbp]
	mov	rcx, QWORD PTR other$[rbp]
	movss	xmm0, DWORD PTR [rax]
	mulss	xmm0, DWORD PTR [rcx]
	mov	rax, QWORD PTR this$[rbp]
	mov	rcx, QWORD PTR other$[rbp]
	movss	xmm1, DWORD PTR [rax+4]
	mulss	xmm1, DWORD PTR [rcx+4]
	addss	xmm0, xmm1
	mov	rax, QWORD PTR this$[rbp]
	mov	rcx, QWORD PTR other$[rbp]
	movss	xmm1, DWORD PTR [rax+8]
	mulss	xmm1, DWORD PTR [rcx+8]
	addss	xmm0, xmm1
	lea	rsp, QWORD PTR [rbp+200]
	pop	rdi
	pop	rbp
	ret	0
?dot@vec3@@QEBAMAEBV1@@Z ENDP				; vec3::dot
_TEXT	ENDS
; Function compile flags: /Odtp /RTCsu /ZI
; File C:\Users\hunte\source\repos\MetaRay\MetaRay\src\Vec3.h
;	COMDAT ??0vec3@@QEAA@MMM@Z
_TEXT	SEGMENT
this$ = 224
x$ = 232
y$ = 240
z$ = 248
??0vec3@@QEAA@MMM@Z PROC				; vec3::vec3, COMDAT

; 13   : 	CUDA_SHARED vec3(float x, float y, float z) { this->x = x; this->y = y; this->z = z; }

$LN3:
	movss	DWORD PTR [rsp+32], xmm3
	movss	DWORD PTR [rsp+24], xmm2
	movss	DWORD PTR [rsp+16], xmm1
	mov	QWORD PTR [rsp+8], rcx
	push	rbp
	push	rdi
	sub	rsp, 232				; 000000e8H
	lea	rbp, QWORD PTR [rsp+32]
	lea	rcx, OFFSET FLAT:__F03674A5_Vec3@h
	call	__CheckForDebuggerJustMyCode
	mov	rax, QWORD PTR this$[rbp]
	movss	xmm0, DWORD PTR x$[rbp]
	movss	DWORD PTR [rax], xmm0
	mov	rax, QWORD PTR this$[rbp]
	movss	xmm0, DWORD PTR y$[rbp]
	movss	DWORD PTR [rax+4], xmm0
	mov	rax, QWORD PTR this$[rbp]
	movss	xmm0, DWORD PTR z$[rbp]
	movss	DWORD PTR [rax+8], xmm0
	mov	rax, QWORD PTR this$[rbp]
	lea	rsp, QWORD PTR [rbp+200]
	pop	rdi
	pop	rbp
	ret	0
??0vec3@@QEAA@MMM@Z ENDP				; vec3::vec3
_TEXT	ENDS
; Function compile flags: /Odtp /RTCsu /ZI
; File C:\Program Files (x86)\Microsoft Visual Studio\2019\Community\VC\Tools\MSVC\14.29.30037\include\cmath
;	COMDAT ?sqrt@@YAMM@Z
_TEXT	SEGMENT
_Xx$ = 224
?sqrt@@YAMM@Z PROC					; sqrt, COMDAT

; 264  : _NODISCARD _Check_return_ inline float sqrt(_In_ float _Xx) noexcept /* strengthened */ {

$LN3:
	movss	DWORD PTR [rsp+8], xmm0
	push	rbp
	push	rdi
	sub	rsp, 248				; 000000f8H
	lea	rbp, QWORD PTR [rsp+48]
	lea	rcx, OFFSET FLAT:__6D66DEAE_cmath
	call	__CheckForDebuggerJustMyCode

; 265  :     return _CSTD sqrtf(_Xx);

	movss	xmm0, DWORD PTR _Xx$[rbp]
	call	sqrtf

; 266  : }

	lea	rsp, QWORD PTR [rbp+200]
	pop	rdi
	pop	rbp
	ret	0
?sqrt@@YAMM@Z ENDP					; sqrt
_TEXT	ENDS
; Function compile flags: /Odtp /RTCsu /ZI
; File C:\Users\hunte\source\repos\MetaRay\MetaRay\src\Shapes.cpp
;	COMDAT ?__empty_global_delete@@YAXPEAX_K@Z
_TEXT	SEGMENT
__formal$ = 224
__formal$ = 232
?__empty_global_delete@@YAXPEAX_K@Z PROC		; __empty_global_delete, COMDAT

$LN3:
	mov	QWORD PTR [rsp+16], rdx
	mov	QWORD PTR [rsp+8], rcx
	push	rbp
	push	rdi
	sub	rsp, 232				; 000000e8H
	lea	rbp, QWORD PTR [rsp+32]
	lea	rcx, OFFSET FLAT:__3AA5F7DA_Shapes@cpp
	call	__CheckForDebuggerJustMyCode
	lea	rsp, QWORD PTR [rbp+200]
	pop	rdi
	pop	rbp
	ret	0
?__empty_global_delete@@YAXPEAX_K@Z ENDP		; __empty_global_delete
_TEXT	ENDS
; Function compile flags: /Odtp /RTCsu /ZI
; File C:\Users\hunte\source\repos\MetaRay\MetaRay\src\Shapes.cpp
;	COMDAT ?__empty_global_delete@@YAXPEAX@Z
_TEXT	SEGMENT
__formal$ = 224
?__empty_global_delete@@YAXPEAX@Z PROC			; __empty_global_delete, COMDAT

$LN3:
	mov	QWORD PTR [rsp+8], rcx
	push	rbp
	push	rdi
	sub	rsp, 232				; 000000e8H
	lea	rbp, QWORD PTR [rsp+32]
	lea	rcx, OFFSET FLAT:__3AA5F7DA_Shapes@cpp
	call	__CheckForDebuggerJustMyCode
	lea	rsp, QWORD PTR [rbp+200]
	pop	rdi
	pop	rbp
	ret	0
?__empty_global_delete@@YAXPEAX@Z ENDP			; __empty_global_delete
_TEXT	ENDS
END
